(dp0
S'subject11'
p1
I15
sS'subject07'
p2
I12
sS'Alok'
p3
I9
sS'Chiraag'
p4
I1
sS'Aditya'
p5
I14
sS'subject10'
p6
I16
sS'subject02'
p7
I13
sS'Nihal'
p8
I17
sS'subject01'
p9
I4
sS'subject03'
p10
I2
sS'Other'
p11
I8
sS'subject05'
p12
I6
sS'subject04'
p13
I3
sS'Arvind'
p14
I5
sS'subject06'
p15
I11
sS'subject09'
p16
I10
sS'subject08'
p17
I7
s.